target datalayout = "e-m:e-p270:32:32-p271:32:32-p272:64:64-i64:64-i128:128-f80:128-n8:16:32:64-S128"
target triple = "x86_64-pc-linux-gnu"

%"class.boost::filesystem::path" = type { %"class.std::__cxx11::basic_string" }
%"class.std::__cxx11::basic_string" = type { %"struct.std::__cxx11::basic_string<char>::_Alloc_hider", i64, %union.anon }
%"struct.std::__cxx11::basic_string<char>::_Alloc_hider" = type { ptr }
%union.anon = type { i64, [8 x i8] }
%struct.statx = type { i32, i32, i64, i32, i32, i32, i16, [1 x i16], i64, i64, i64, i64, %struct.statx_timestamp, %struct.statx_timestamp, %struct.statx_timestamp, %struct.statx_timestamp, i32, i32, i32, i32, i64, i64, [12 x i64] }
%struct.statx_timestamp = type { i64, i32, i32 }
%"class.boost::system::error_code" = type { %union.anon.1, i64 }
%union.anon.1 = type { %"struct.boost::system::error_code::data" }
%"struct.boost::system::error_code::data" = type { i32, ptr }

@.str.12 = private unnamed_addr constant [30 x i8] c"boost::filesystem::equivalent\00", align 1

; Function Attrs: noinline noreturn nounwind uwtable
define linkonce_odr hidden void @__clang_call_terminate(ptr noundef %0) #3 comdat {
  %2 = call ptr @__cxa_begin_catch(ptr %0) #14
  call void @_ZSt9terminatev() #20
  unreachable
}

; Function Attrs: mustprogress nounwind uwtable
define available_externally noundef ptr @_ZNKSt7__cxx1112basic_stringIcSt11char_traitsIcESaIcEE7_M_dataEv(ptr noundef nonnull align 8 dereferenceable(32) %0) #2 align 2 {
  %2 = alloca ptr, align 8
  store ptr %0, ptr %2, align 8, !tbaa !3
  %3 = load ptr, ptr %2, align 8
  %4 = getelementptr inbounds nuw %"class.std::__cxx11::basic_string", ptr %3, i32 0, i32 0
  %5 = getelementptr inbounds nuw %"struct.std::__cxx11::basic_string<char>::_Alloc_hider", ptr %4, i32 0, i32 0
  %6 = load ptr, ptr %5, align 8, !tbaa !90
  ret ptr %6
}

; Function Attrs: mustprogress nounwind uwtable
define available_externally noundef ptr @_ZNKSt7__cxx1112basic_stringIcSt11char_traitsIcESaIcEE5c_strEv(ptr noundef nonnull align 8 dereferenceable(32) %0) #2 align 2 personality ptr @__gxx_personality_v0 {
  %2 = alloca ptr, align 8
  store ptr %0, ptr %2, align 8, !tbaa !3
  %3 = load ptr, ptr %2, align 8
  %4 = invoke noundef ptr @_ZNKSt7__cxx1112basic_stringIcSt11char_traitsIcESaIcEE7_M_dataEv(ptr noundef nonnull align 8 dereferenceable(32) %3)
          to label %5 unwind label %6

5:                                                ; preds = %1
  ret ptr %4

6:                                                ; preds = %1
  %7 = landingpad { ptr, i32 }
          catch ptr null
  %8 = extractvalue { ptr, i32 } %7, 0
  call void @__clang_call_terminate(ptr %8) #20
  unreachable
}

; Function Attrs: mustprogress nounwind uwtable
define linkonce_odr hidden void @_ZN5boost6system10error_codeC2Ev(ptr noundef nonnull align 8 dereferenceable(24) %0) unnamed_addr #2 comdat align 2 {
  %2 = alloca ptr, align 8
  store ptr %0, ptr %2, align 8, !tbaa !3
  %3 = load ptr, ptr %2, align 8
  %4 = getelementptr inbounds nuw %"class.boost::system::error_code", ptr %3, i32 0, i32 0
  call void @llvm.memset.p0.i64(ptr align 8 %4, i8 0, i64 16, i1 false)
  %5 = getelementptr inbounds nuw %"class.boost::system::error_code", ptr %3, i32 0, i32 1
  store i64 0, ptr %5, align 8, !tbaa !32
  ret void
}

; Function Attrs: inlinehint mustprogress nounwind uwtable
define internal noundef zeroext i1 @_ZN5boost10filesystem6detail12_GLOBAL__N_115equivalent_statERK5statxS5_(ptr noundef nonnull align 8 dereferenceable(256) %0, ptr noundef nonnull align 8 dereferenceable(256) %1) #1 {
  %3 = alloca ptr, align 8
  %4 = alloca ptr, align 8
  store ptr %0, ptr %3, align 8, !tbaa !3
  store ptr %1, ptr %4, align 8, !tbaa !3
  %5 = load ptr, ptr %3, align 8, !tbaa !3
  %6 = getelementptr inbounds nuw %struct.statx, ptr %5, i32 0, i32 18
  %7 = load i32, ptr %6, align 8, !tbaa !54
  %8 = load ptr, ptr %4, align 8, !tbaa !3
  %9 = getelementptr inbounds nuw %struct.statx, ptr %8, i32 0, i32 18
  %10 = load i32, ptr %9, align 8, !tbaa !54
  %11 = icmp eq i32 %7, %10
  br i1 %11, label %12, label %28

12:                                               ; preds = %2
  %13 = load ptr, ptr %3, align 8, !tbaa !3
  %14 = getelementptr inbounds nuw %struct.statx, ptr %13, i32 0, i32 19
  %15 = load i32, ptr %14, align 4, !tbaa !55
  %16 = load ptr, ptr %4, align 8, !tbaa !3
  %17 = getelementptr inbounds nuw %struct.statx, ptr %16, i32 0, i32 19
  %18 = load i32, ptr %17, align 4, !tbaa !55
  %19 = icmp eq i32 %15, %18
  br i1 %19, label %20, label %28

20:                                               ; preds = %12
  %21 = load ptr, ptr %3, align 8, !tbaa !3
  %22 = getelementptr inbounds nuw %struct.statx, ptr %21, i32 0, i32 8
  %23 = load i64, ptr %22, align 8, !tbaa !56
  %24 = load ptr, ptr %4, align 8, !tbaa !3
  %25 = getelementptr inbounds nuw %struct.statx, ptr %24, i32 0, i32 8
  %26 = load i64, ptr %25, align 8, !tbaa !56
  %27 = icmp eq i64 %23, %26
  br label %28

28:                                               ; preds = %20, %12, %2
  %29 = phi i1 [ false, %12 ], [ false, %2 ], [ %27, %20 ]
  ret i1 %29
}

; Function Attrs: alwaysinline mustprogress nounwind uwtable
define internal noundef i32 @_ZN5boost10filesystem6detail12_GLOBAL__N_112invoke_statxEiPKcijP5statx(i32 noundef %0, ptr noundef %1, i32 noundef %2, i32 noundef %3, ptr noundef %4) #6 {
  %6 = alloca i32, align 4
  %7 = alloca ptr, align 8
  %8 = alloca i32, align 4
  %9 = alloca i32, align 4
  %10 = alloca ptr, align 8
  store i32 %0, ptr %6, align 4, !tbaa !7
  store ptr %1, ptr %7, align 8, !tbaa !3
  store i32 %2, ptr %8, align 4, !tbaa !7
  store i32 %3, ptr %9, align 4, !tbaa !7
  store ptr %4, ptr %10, align 8, !tbaa !3
  %11 = load i32, ptr %6, align 4, !tbaa !7
  %12 = load ptr, ptr %7, align 8, !tbaa !3
  %13 = load i32, ptr %8, align 4, !tbaa !7
  %14 = load i32, ptr %9, align 4, !tbaa !7
  %15 = load ptr, ptr %10, align 8, !tbaa !3
  %16 = call i32 @statx(i32 noundef %11, ptr noundef %12, i32 noundef %13, i32 noundef %14, ptr noundef %15) #14
  ret i32 %16
}

; Function Attrs: mustprogress nounwind uwtable
define linkonce_odr hidden noundef ptr @_ZNK5boost10filesystem4path5c_strEv(ptr noundef nonnull align 8 dereferenceable(32) %0) #2 comdat align 2 {
  %2 = alloca ptr, align 8
  store ptr %0, ptr %2, align 8, !tbaa !3
  %3 = load ptr, ptr %2, align 8
  %4 = getelementptr inbounds nuw %"class.boost::filesystem::path", ptr %3, i32 0, i32 0
  %5 = call noundef ptr @_ZNKSt7__cxx1112basic_stringIcSt11char_traitsIcESaIcEE5c_strEv(ptr noundef nonnull align 8 dereferenceable(32) %4) #14
  ret ptr %5
}

; Function Attrs: mustprogress nounwind uwtable
define linkonce_odr hidden void @_ZN5boost6system10error_code5clearEv(ptr noundef nonnull align 8 dereferenceable(24) %0) #2 comdat align 2 {
  %2 = alloca ptr, align 8
  %3 = alloca %"class.boost::system::error_code", align 8
  store ptr %0, ptr %2, align 8, !tbaa !3
  %4 = load ptr, ptr %2, align 8
  call void @llvm.lifetime.start.p0(i64 24, ptr %3) #14
  call void @_ZN5boost6system10error_codeC2Ev(ptr noundef nonnull align 8 dereferenceable(24) %3) #14
  call void @llvm.memcpy.p0.p0.i64(ptr align 8 %4, ptr align 8 %3, i64 24, i1 false), !tbaa.struct !21
  call void @llvm.lifetime.end.p0(i64 24, ptr %3) #14
  ret void
}

; Function Attrs: mustprogress uwtable
define noundef zeroext i1 @_ZN5boost10filesystem6detail13equivalent_v4ERKNS0_4pathES4_PNS_6system10error_codeE(ptr noundef nonnull align 8 dereferenceable(32) %0, ptr noundef nonnull align 8 dereferenceable(32) %1, ptr noundef %2) #5 {
  %4 = alloca i1, align 1
  %5 = alloca ptr, align 8
  %6 = alloca ptr, align 8
  %7 = alloca ptr, align 8
  %8 = alloca %struct.statx, align 8
  %9 = alloca i32, align 4
  %10 = alloca i32, align 4
  %11 = alloca %struct.statx, align 8
  store ptr %0, ptr %5, align 8, !tbaa !3
  store ptr %1, ptr %6, align 8, !tbaa !3
  store ptr %2, ptr %7, align 8, !tbaa !3
  %12 = load ptr, ptr %7, align 8, !tbaa !3
  %13 = icmp ne ptr %12, null
  br i1 %13, label %14, label %16

14:                                               ; preds = %3
  %15 = load ptr, ptr %7, align 8, !tbaa !3
  call void @_ZN5boost6system10error_code5clearEv(ptr noundef nonnull align 8 dereferenceable(24) %15) #14
  br label %16

16:                                               ; preds = %14, %3
  call void @llvm.lifetime.start.p0(i64 256, ptr %8) #14
  call void @llvm.lifetime.start.p0(i64 4, ptr %9) #14
  %17 = load ptr, ptr %5, align 8, !tbaa !3
  %18 = call noundef ptr @_ZNK5boost10filesystem4path5c_strEv(ptr noundef nonnull align 8 dereferenceable(32) %17) #14
  %19 = call noundef i32 @_ZN5boost10filesystem6detail12_GLOBAL__N_112invoke_statxEiPKcijP5statx(i32 noundef -100, ptr noundef %18, i32 noundef 2048, i32 noundef 256, ptr noundef %8)
  store i32 %19, ptr %9, align 4, !tbaa !7
  %20 = load i32, ptr %9, align 4, !tbaa !7
  %21 = icmp ne i32 %20, 0
  %22 = zext i1 %21 to i64
  %23 = call i64 @llvm.expect.i64(i64 %22, i64 0)
  %24 = icmp ne i64 %23, 0
  br i1 %24, label %25, label %34

25:                                               ; preds = %16
  br label %26

26:                                               ; preds = %65, %25
  %27 = call ptr @__errno_location() #22
  %28 = load i32, ptr %27, align 4, !tbaa !7
  store i32 %28, ptr %9, align 4, !tbaa !7
  br label %29

29:                                               ; preds = %43, %26
  %30 = load i32, ptr %9, align 4, !tbaa !7
  %31 = load ptr, ptr %5, align 8, !tbaa !3
  %32 = load ptr, ptr %6, align 8, !tbaa !3
  %33 = load ptr, ptr %7, align 8, !tbaa !3
  call void @_ZN5boost10filesystem10emit_errorEiRKNS0_4pathES3_PNS_6system10error_codeEPKc(i32 noundef %30, ptr noundef nonnull align 8 dereferenceable(32) %31, ptr noundef nonnull align 8 dereferenceable(32) %32, ptr noundef %33, ptr noundef @.str.12)
  store i1 false, ptr %4, align 1
  store i32 1, ptr %10, align 4
  br label %67

34:                                               ; preds = %16
  %35 = getelementptr inbounds nuw %struct.statx, ptr %8, i32 0, i32 0
  %36 = load i32, ptr %35, align 8, !tbaa !16
  %37 = and i32 %36, 256
  %38 = icmp ne i32 %37, 256
  %39 = zext i1 %38 to i64
  %40 = call i64 @llvm.expect.i64(i64 %39, i64 0)
  %41 = icmp ne i64 %40, 0
  br i1 %41, label %42, label %44

42:                                               ; preds = %34
  br label %43

43:                                               ; preds = %65, %42
  store i32 38, ptr %9, align 4, !tbaa !7
  br label %29

44:                                               ; preds = %34
  call void @llvm.lifetime.start.p0(i64 256, ptr %11) #14
  %45 = load ptr, ptr %6, align 8, !tbaa !3
  %46 = call noundef ptr @_ZNK5boost10filesystem4path5c_strEv(ptr noundef nonnull align 8 dereferenceable(32) %45) #14
  %47 = call noundef i32 @_ZN5boost10filesystem6detail12_GLOBAL__N_112invoke_statxEiPKcijP5statx(i32 noundef -100, ptr noundef %46, i32 noundef 2048, i32 noundef 256, ptr noundef %11)
  store i32 %47, ptr %9, align 4, !tbaa !7
  %48 = load i32, ptr %9, align 4, !tbaa !7
  %49 = icmp ne i32 %48, 0
  %50 = zext i1 %49 to i64
  %51 = call i64 @llvm.expect.i64(i64 %50, i64 0)
  %52 = icmp ne i64 %51, 0
  br i1 %52, label %53, label %54

53:                                               ; preds = %44
  store i32 2, ptr %10, align 4
  br label %65

54:                                               ; preds = %44
  %55 = getelementptr inbounds nuw %struct.statx, ptr %8, i32 0, i32 0
  %56 = load i32, ptr %55, align 8, !tbaa !16
  %57 = and i32 %56, 256
  %58 = icmp ne i32 %57, 256
  %59 = zext i1 %58 to i64
  %60 = call i64 @llvm.expect.i64(i64 %59, i64 0)
  %61 = icmp ne i64 %60, 0
  br i1 %61, label %62, label %63

62:                                               ; preds = %54
  store i32 4, ptr %10, align 4
  br label %65

63:                                               ; preds = %54
  %64 = call noundef zeroext i1 @_ZN5boost10filesystem6detail12_GLOBAL__N_115equivalent_statERK5statxS5_(ptr noundef nonnull align 8 dereferenceable(256) %8, ptr noundef nonnull align 8 dereferenceable(256) %11) #14
  store i1 %64, ptr %4, align 1
  store i32 1, ptr %10, align 4
  br label %65

65:                                               ; preds = %63, %62, %53
  call void @llvm.lifetime.end.p0(i64 256, ptr %11) #14
  %66 = load i32, ptr %10, align 4
  switch i32 %66, label %67 [
    i32 2, label %26
    i32 4, label %43
  ]

67:                                               ; preds = %65, %29
  call void @llvm.lifetime.end.p0(i64 4, ptr %9) #14
  call void @llvm.lifetime.end.p0(i64 256, ptr %8) #14
  %68 = load i1, ptr %4, align 1
  ret i1 %68
}