; Function Attrs: mustprogress uwtable
define noundef zeroext i1 @_ZN5boost10filesystem6detail13equivalent_v4ERKNS0_4pathES4_PNS_6system10error_codeE(ptr noundef nonnull align 8 dereferenceable(32) %0, ptr noundef nonnull align 8 dereferenceable(32) %1, ptr noundef %2) local_unnamed_addr #5 personality ptr @__gxx_personality_v0 {
  %4 = alloca %struct.statx, align 8
  %5 = alloca %struct.statx, align 8
  %.not = icmp eq ptr %2, null
  br i1 %.not, label %7, label %6

6:                                                ; preds = %3
  tail call void @llvm.memset.p0.i64(ptr noundef nonnull align 8 dereferenceable(24) %2, i8 0, i64 24, i1 false)
  br label %7

7:                                                ; preds = %6, %3
  call void @llvm.lifetime.start.p0(i64 256, ptr nonnull %4) #27
  %8 = load ptr, ptr %0, align 8, !tbaa !13
  %9 = call noundef i32 @statx(i32 noundef -100, ptr noundef %8, i32 noundef 2048, i32 noundef 256, ptr noundef nonnull %4) #27
  %.not14 = icmp eq i32 %9, 0
  br i1 %.not14, label %14, label %10, !prof !32

10:                                               ; preds = %_ZN5boost10filesystem6detail12_GLOBAL__N_115equivalent_statERK5statxS5_.exit.thread20, %7
  %11 = tail call ptr @__errno_location() #30
  %12 = load i32, ptr %11, align 4, !tbaa !19
  br label %13

13:                                               ; preds = %_ZN5boost10filesystem6detail12_GLOBAL__N_115equivalent_statERK5statxS5_.exit, %14, %10
  %.011 = phi i32 [ %12, %10 ], [ 38, %14 ], [ 38, %_ZN5boost10filesystem6detail12_GLOBAL__N_115equivalent_statERK5statxS5_.exit ]
  call void @_ZN5boost10filesystem10emit_errorEiRKNS0_4pathES3_PNS_6system10error_codeEPKc(i32 noundef %.011, ptr noundef nonnull align 8 dereferenceable(32) %0, ptr noundef nonnull align 8 dereferenceable(32) %1, ptr noundef %2, ptr noundef nonnull @.str.12)
  br label %41

14:                                               ; preds = %7
  %15 = load i32, ptr %4, align 8, !tbaa !28
  %16 = and i32 %15, 256
  %.not15.not = icmp eq i32 %16, 0
  br i1 %.not15.not, label %13, label %17, !prof !41

17:                                               ; preds = %14
  call void @llvm.lifetime.start.p0(i64 256, ptr nonnull %5) #27
  %18 = load ptr, ptr %1, align 8, !tbaa !13
  %19 = call noundef i32 @statx(i32 noundef -100, ptr noundef %18, i32 noundef 2048, i32 noundef 256, ptr noundef nonnull %5) #27
  %.not16 = icmp eq i32 %19, 0
  br i1 %.not16, label %20, label %_ZN5boost10filesystem6detail12_GLOBAL__N_115equivalent_statERK5statxS5_.exit.thread20, !prof !32

_ZN5boost10filesystem6detail12_GLOBAL__N_115equivalent_statERK5statxS5_.exit.thread20: ; preds = %17
  call void @llvm.lifetime.end.p0(i64 256, ptr nonnull %5) #27
  br label %10

20:                                               ; preds = %17
  %21 = load i32, ptr %4, align 8, !tbaa !28
  %22 = and i32 %21, 256
  %.not17.not = icmp eq i32 %22, 0
  br i1 %.not17.not, label %_ZN5boost10filesystem6detail12_GLOBAL__N_115equivalent_statERK5statxS5_.exit, label %23, !prof !41

23:                                               ; preds = %20
  %24 = getelementptr inbounds nuw i8, ptr %4, i64 136
  %25 = load i32, ptr %24, align 8, !tbaa !127
  %26 = getelementptr inbounds nuw i8, ptr %5, i64 136
  %27 = load i32, ptr %26, align 8, !tbaa !127
  %28 = icmp eq i32 %25, %27
  br i1 %28, label %29, label %_ZN5boost10filesystem6detail12_GLOBAL__N_115equivalent_statERK5statxS5_.exit.thread

29:                                               ; preds = %23
  %30 = getelementptr inbounds nuw i8, ptr %4, i64 140
  %31 = load i32, ptr %30, align 4, !tbaa !128
  %32 = getelementptr inbounds nuw i8, ptr %5, i64 140
  %33 = load i32, ptr %32, align 4, !tbaa !128
  %34 = icmp eq i32 %31, %33
  br i1 %34, label %35, label %_ZN5boost10filesystem6detail12_GLOBAL__N_115equivalent_statERK5statxS5_.exit.thread

35:                                               ; preds = %29
  %36 = getelementptr inbounds nuw i8, ptr %4, i64 32
  %37 = load i64, ptr %36, align 8, !tbaa !129
  %38 = getelementptr inbounds nuw i8, ptr %5, i64 32
  %39 = load i64, ptr %38, align 8, !tbaa !129
  %40 = icmp eq i64 %37, %39
  br label %_ZN5boost10filesystem6detail12_GLOBAL__N_115equivalent_statERK5statxS5_.exit.thread

_ZN5boost10filesystem6detail12_GLOBAL__N_115equivalent_statERK5statxS5_.exit.thread: ; preds = %23, %29, %35
  %.1.ph = phi i1 [ %40, %35 ], [ false, %23 ], [ false, %29 ]
  call void @llvm.lifetime.end.p0(i64 256, ptr nonnull %5) #27
  br label %41

_ZN5boost10filesystem6detail12_GLOBAL__N_115equivalent_statERK5statxS5_.exit: ; preds = %20
  call void @llvm.lifetime.end.p0(i64 256, ptr nonnull %5) #27
  br label %13

41:                                               ; preds = %_ZN5boost10filesystem6detail12_GLOBAL__N_115equivalent_statERK5statxS5_.exit.thread, %13
  %.012 = phi i1 [ false, %13 ], [ %.1.ph, %_ZN5boost10filesystem6detail12_GLOBAL__N_115equivalent_statERK5statxS5_.exit.thread ]
  call void @llvm.lifetime.end.p0(i64 256, ptr nonnull %4) #27
  ret i1 %.012
}